target datalayout = "e-m:e-p270:32:32-p271:32:32-p272:64:64-i64:64-i128:128-f80:128-n8:16:32:64-S128"
target triple = "x86_64-pc-linux-gnu"

%"class.Imath_2_5::Vec2.6" = type { float, float }
%"class.cv::ExrDecoder" = type { %"class.cv::BaseImageDecoder", ptr, i32, %"class.Imath_2_5::Box", i8, ptr, ptr, ptr, ptr, %"struct.Imf_2_5::Chromaticities", i32, i8, i8, i8, i8 }
%"class.cv::BaseImageDecoder" = type { ptr, i32, i32, i32, i32, %"class.std::__cxx11::basic_string", %"class.std::__cxx11::basic_string", %"class.cv::Mat", i8, i8, [6 x i8], %"class.cv::ExifReader" }
%"class.std::__cxx11::basic_string" = type { %"struct.std::__cxx11::basic_string<char>::_Alloc_hider", i64, %union.anon }
%"struct.std::__cxx11::basic_string<char>::_Alloc_hider" = type { ptr }
%union.anon = type { i64, [8 x i8] }
%"class.cv::Mat" = type { i32, i32, i32, i32, ptr, ptr, ptr, ptr, ptr, ptr, %"struct.cv::MatSize", %"struct.cv::MatStep" }
%"struct.cv::MatSize" = type { ptr }
%"struct.cv::MatStep" = type { ptr, [2 x i64] }
%"class.cv::ExifReader" = type <{ %"class.std::vector", %"class.std::map", i32, [4 x i8] }>
%"class.std::vector" = type { %"struct.std::_Vector_base" }
%"struct.std::_Vector_base" = type { %"struct.std::_Vector_base<unsigned char, std::allocator<unsigned char>>::_Vector_impl" }
%"struct.std::_Vector_base<unsigned char, std::allocator<unsigned char>>::_Vector_impl" = type { %"struct.std::_Vector_base<unsigned char, std::allocator<unsigned char>>::_Vector_impl_data" }
%"struct.std::_Vector_base<unsigned char, std::allocator<unsigned char>>::_Vector_impl_data" = type { ptr, ptr, ptr }
%"class.std::map" = type { %"class.std::_Rb_tree" }
%"class.std::_Rb_tree" = type { %"struct.std::_Rb_tree<int, std::pair<const int, cv::ExifEntry_t>, std::_Select1st<std::pair<const int, cv::ExifEntry_t>>, std::less<int>>::_Rb_tree_impl" }
%"struct.std::_Rb_tree<int, std::pair<const int, cv::ExifEntry_t>, std::_Select1st<std::pair<const int, cv::ExifEntry_t>>, std::less<int>>::_Rb_tree_impl" = type { %"struct.std::_Rb_tree_key_compare", %"struct.std::_Rb_tree_header" }
%"struct.std::_Rb_tree_key_compare" = type { %"struct.std::less" }
%"struct.std::less" = type { i8 }
%"struct.std::_Rb_tree_header" = type { %"struct.std::_Rb_tree_node_base", i64 }
%"struct.std::_Rb_tree_node_base" = type { i32, ptr, ptr, ptr }
%"class.Imath_2_5::Box" = type { %"class.Imath_2_5::Vec2", %"class.Imath_2_5::Vec2" }
%"class.Imath_2_5::Vec2" = type { i32, i32 }
%"struct.Imf_2_5::Chromaticities" = type { %"class.Imath_2_5::Vec2.6", %"class.Imath_2_5::Vec2.6", %"class.Imath_2_5::Vec2.6", %"class.Imath_2_5::Vec2.6" }

@.str = private unnamed_addr constant [5 x i8] c"v/1\01\00", align 1

; Function Attrs: mustprogress nounwind uwtable
define linkonce_odr hidden noundef i32 @_ZN9Imath_2_56limitsIiE3minEv() #5 comdat align 2 {
  ret i32 -2147483648
}

; Function Attrs: mustprogress nounwind uwtable
define linkonce_odr hidden noundef i32 @_ZN9Imath_2_56limitsIiE3maxEv() #5 comdat align 2 {
  ret i32 2147483647
}

; Function Attrs: mustprogress uwtable
define linkonce_odr hidden noundef i32 @_ZN9Imath_2_54Vec2IiE11baseTypeMinEv() #4 comdat align 2 {
  %1 = call noundef i32 @_ZN9Imath_2_56limitsIiE3minEv()
  ret i32 %1
}

; Function Attrs: mustprogress nounwind uwtable
define linkonce_odr hidden noundef nonnull align 4 dereferenceable(8) ptr @_ZN9Imath_2_54Vec2IiEaSERKS1_(ptr noundef nonnull align 4 dereferenceable(8) %0, ptr noundef nonnull align 4 dereferenceable(8) %1) #5 comdat align 2 {
  %3 = alloca ptr, align 8
  %4 = alloca ptr, align 8
  store ptr %0, ptr %3, align 8
  store ptr %1, ptr %4, align 8
  %5 = load ptr, ptr %3, align 8
  %6 = load ptr, ptr %4, align 8
  %7 = getelementptr inbounds %"class.Imath_2_5::Vec2", ptr %6, i32 0, i32 0
  %8 = load i32, ptr %7, align 4
  %9 = getelementptr inbounds %"class.Imath_2_5::Vec2", ptr %5, i32 0, i32 0
  store i32 %8, ptr %9, align 4
  %10 = load ptr, ptr %4, align 8
  %11 = getelementptr inbounds %"class.Imath_2_5::Vec2", ptr %10, i32 0, i32 1
  %12 = load i32, ptr %11, align 4
  %13 = getelementptr inbounds %"class.Imath_2_5::Vec2", ptr %5, i32 0, i32 1
  store i32 %12, ptr %13, align 4
  ret ptr %5
}

; Function Attrs: mustprogress nounwind uwtable
define linkonce_odr hidden void @_ZN9Imath_2_54Vec2IiEC2Ei(ptr noundef nonnull align 4 dereferenceable(8) %0, i32 noundef %1) unnamed_addr #5 comdat align 2 {
  %3 = alloca ptr, align 8
  %4 = alloca i32, align 4
  store ptr %0, ptr %3, align 8
  store i32 %1, ptr %4, align 4
  %5 = load ptr, ptr %3, align 8
  %6 = load i32, ptr %4, align 4
  %7 = getelementptr inbounds %"class.Imath_2_5::Vec2", ptr %5, i32 0, i32 1
  store i32 %6, ptr %7, align 4
  %8 = getelementptr inbounds %"class.Imath_2_5::Vec2", ptr %5, i32 0, i32 0
  store i32 %6, ptr %8, align 4
  ret void
}

; Function Attrs: mustprogress uwtable
define linkonce_odr hidden noundef i32 @_ZN9Imath_2_54Vec2IiE11baseTypeMaxEv() #4 comdat align 2 {
  %1 = call noundef i32 @_ZN9Imath_2_56limitsIiE3maxEv()
  ret i32 %1
}

; Function Attrs: mustprogress uwtable
define linkonce_odr hidden void @_ZN9Imath_2_53BoxINS_4Vec2IiEEE9makeEmptyEv(ptr noundef nonnull align 4 dereferenceable(16) %0) #4 comdat align 2 {
  %2 = alloca ptr, align 8
  %3 = alloca %"class.Imath_2_5::Vec2", align 4
  %4 = alloca %"class.Imath_2_5::Vec2", align 4
  store ptr %0, ptr %2, align 8
  %5 = load ptr, ptr %2, align 8
  %6 = call noundef i32 @_ZN9Imath_2_54Vec2IiE11baseTypeMaxEv()
  call void @_ZN9Imath_2_54Vec2IiEC2Ei(ptr noundef nonnull align 4 dereferenceable(8) %3, i32 noundef %6)
  %7 = getelementptr inbounds %"class.Imath_2_5::Box", ptr %5, i32 0, i32 0
  %8 = call noundef nonnull align 4 dereferenceable(8) ptr @_ZN9Imath_2_54Vec2IiEaSERKS1_(ptr noundef nonnull align 4 dereferenceable(8) %7, ptr noundef nonnull align 4 dereferenceable(8) %3)
  %9 = call noundef i32 @_ZN9Imath_2_54Vec2IiE11baseTypeMinEv()
  call void @_ZN9Imath_2_54Vec2IiEC2Ei(ptr noundef nonnull align 4 dereferenceable(8) %4, i32 noundef %9)
  %10 = getelementptr inbounds %"class.Imath_2_5::Box", ptr %5, i32 0, i32 1
  %11 = call noundef nonnull align 4 dereferenceable(8) ptr @_ZN9Imath_2_54Vec2IiEaSERKS1_(ptr noundef nonnull align 4 dereferenceable(8) %10, ptr noundef nonnull align 4 dereferenceable(8) %4)
  ret void
}

; Function Attrs: mustprogress nounwind uwtable
define linkonce_odr hidden void @_ZN9Imath_2_54Vec2IiEC2Ev(ptr noundef nonnull align 4 dereferenceable(8) %0) unnamed_addr #5 comdat align 2 {
  %2 = alloca ptr, align 8
  store ptr %0, ptr %2, align 8
  ret void
}

; Function Attrs: mustprogress nounwind uwtable
define linkonce_odr hidden void @_ZN9Imath_2_54Vec2IfEC2Eff(ptr noundef nonnull align 4 dereferenceable(8) %0, float noundef %1, float noundef %2) unnamed_addr #5 comdat align 2 {
  %4 = alloca ptr, align 8
  %5 = alloca float, align 4
  %6 = alloca float, align 4
  store ptr %0, ptr %4, align 8
  store float %1, ptr %5, align 4
  store float %2, ptr %6, align 4
  %7 = load ptr, ptr %4, align 8
  %8 = load float, ptr %5, align 4
  %9 = getelementptr inbounds %"class.Imath_2_5::Vec2.6", ptr %7, i32 0, i32 0
  store float %8, ptr %9, align 4
  %10 = load float, ptr %6, align 4
  %11 = getelementptr inbounds %"class.Imath_2_5::Vec2.6", ptr %7, i32 0, i32 1
  store float %10, ptr %11, align 4
  ret void
}

; Function Attrs: mustprogress uwtable
define linkonce_odr hidden void @_ZN9Imath_2_53BoxINS_4Vec2IiEEEC2Ev(ptr noundef nonnull align 4 dereferenceable(16) %0) unnamed_addr #4 comdat align 2 {
  %2 = alloca ptr, align 8
  store ptr %0, ptr %2, align 8
  %3 = load ptr, ptr %2, align 8
  %4 = getelementptr inbounds %"class.Imath_2_5::Box", ptr %3, i32 0, i32 0
  call void @_ZN9Imath_2_54Vec2IiEC2Ev(ptr noundef nonnull align 4 dereferenceable(8) %4)
  %5 = getelementptr inbounds %"class.Imath_2_5::Box", ptr %3, i32 0, i32 1
  call void @_ZN9Imath_2_54Vec2IiEC2Ev(ptr noundef nonnull align 4 dereferenceable(8) %5)
  call void @_ZN9Imath_2_53BoxINS_4Vec2IiEEE9makeEmptyEv(ptr noundef nonnull align 4 dereferenceable(16) %3)
  ret void
}

; Function Attrs: mustprogress uwtable
define hidden void @_ZN2cv10ExrDecoderC2Ev(ptr noundef nonnull align 8 dereferenceable(376) %0) unnamed_addr #4 align 2 personality ptr @__gxx_personality_v0 {
  %2 = alloca ptr, align 8
  %3 = alloca ptr, align 8
  %4 = alloca i32, align 4
  %5 = alloca %"class.Imath_2_5::Vec2.6", align 4
  %6 = alloca %"class.Imath_2_5::Vec2.6", align 4
  %7 = alloca %"class.Imath_2_5::Vec2.6", align 4
  %8 = alloca %"class.Imath_2_5::Vec2.6", align 4
  store ptr %0, ptr %2, align 8
  %9 = load ptr, ptr %2, align 8
  call void @_ZN2cv16BaseImageDecoderC2Ev(ptr noundef nonnull align 8 dereferenceable(272) %9)
  store ptr getelementptr inbounds inrange(-16, 104) ({ [15 x ptr] }, ptr @_ZTVN2cv10ExrDecoderE, i32 0, i32 0, i32 2), ptr %9, align 8
  %10 = getelementptr inbounds %"class.cv::ExrDecoder", ptr %9, i32 0, i32 3
  invoke void @_ZN9Imath_2_53BoxINS_4Vec2IiEEEC2Ev(ptr noundef nonnull align 4 dereferenceable(16) %10)
          to label %11 unwind label %33

11:                                               ; preds = %1
  %12 = getelementptr inbounds %"class.cv::ExrDecoder", ptr %9, i32 0, i32 9
  invoke void @_ZN9Imath_2_54Vec2IfEC2Eff(ptr noundef nonnull align 4 dereferenceable(8) %5, float noundef 0x3FE47AE140000000, float noundef 0x3FD51EB860000000)
          to label %13 unwind label %33

13:                                               ; preds = %11
  invoke void @_ZN9Imath_2_54Vec2IfEC2Eff(ptr noundef nonnull align 4 dereferenceable(8) %6, float noundef 0x3FD3333340000000, float noundef 0x3FE3333340000000)
          to label %14 unwind label %33

14:                                               ; preds = %13
  invoke void @_ZN9Imath_2_54Vec2IfEC2Eff(ptr noundef nonnull align 4 dereferenceable(8) %7, float noundef 0x3FC3333340000000, float noundef 0x3FAEB851E0000000)
          to label %15 unwind label %33

15:                                               ; preds = %14
  invoke void @_ZN9Imath_2_54Vec2IfEC2Eff(ptr noundef nonnull align 4 dereferenceable(8) %8, float noundef 0x3FD40346E0000000, float noundef 0x3FD50E5600000000)
          to label %16 unwind label %33

16:                                               ; preds = %15
  invoke void @_ZN7Imf_2_514ChromaticitiesC1ERKN9Imath_2_54Vec2IfEES5_S5_S5_(ptr noundef nonnull align 4 dereferenceable(32) %12, ptr noundef nonnull align 4 dereferenceable(8) %5, ptr noundef nonnull align 4 dereferenceable(8) %6, ptr noundef nonnull align 4 dereferenceable(8) %7, ptr noundef nonnull align 4 dereferenceable(8) %8)
          to label %17 unwind label %33

17:                                               ; preds = %16
  %18 = getelementptr inbounds %"class.cv::BaseImageDecoder", ptr %9, i32 0, i32 6
  %19 = invoke noundef nonnull align 8 dereferenceable(32) ptr @_ZNSt7__cxx1112basic_stringIcSt11char_traitsIcESaIcEEaSEPKc(ptr noundef nonnull align 8 dereferenceable(32) %18, ptr noundef @.str)
          to label %20 unwind label %33

20:                                               ; preds = %17
  %21 = getelementptr inbounds %"class.cv::ExrDecoder", ptr %9, i32 0, i32 1
  store ptr null, ptr %21, align 8
  %22 = getelementptr inbounds %"class.cv::ExrDecoder", ptr %9, i32 0, i32 8
  store ptr null, ptr %22, align 8
  %23 = getelementptr inbounds %"class.cv::ExrDecoder", ptr %9, i32 0, i32 7
  store ptr null, ptr %23, align 8
  %24 = getelementptr inbounds %"class.cv::ExrDecoder", ptr %9, i32 0, i32 6
  store ptr null, ptr %24, align 8
  %25 = getelementptr inbounds %"class.cv::ExrDecoder", ptr %9, i32 0, i32 5
  store ptr null, ptr %25, align 8
  %26 = getelementptr inbounds %"class.cv::ExrDecoder", ptr %9, i32 0, i32 2
  store i32 0, ptr %26, align 8
  %27 = getelementptr inbounds %"class.cv::ExrDecoder", ptr %9, i32 0, i32 12
  store i8 0, ptr %27, align 1
  %28 = getelementptr inbounds %"class.cv::ExrDecoder", ptr %9, i32 0, i32 10
  store i32 0, ptr %28, align 8
  %29 = getelementptr inbounds %"class.cv::ExrDecoder", ptr %9, i32 0, i32 13
  store i8 0, ptr %29, align 2
  %30 = getelementptr inbounds %"class.cv::ExrDecoder", ptr %9, i32 0, i32 4
  store i8 0, ptr %30, align 4
  %31 = getelementptr inbounds %"class.cv::ExrDecoder", ptr %9, i32 0, i32 14
  store i8 0, ptr %31, align 1
  %32 = getelementptr inbounds %"class.cv::ExrDecoder", ptr %9, i32 0, i32 11
  store i8 0, ptr %32, align 4
  ret void

33:                                               ; preds = %17, %16, %15, %14, %13, %11, %1
  %34 = landingpad { ptr, i32 }
          cleanup
  %35 = extractvalue { ptr, i32 } %34, 0
  store ptr %35, ptr %3, align 8
  %36 = extractvalue { ptr, i32 } %34, 1
  store i32 %36, ptr %4, align 4
  call void @_ZN2cv16BaseImageDecoderD2Ev(ptr noundef nonnull align 8 dereferenceable(272) %9) #3
  br label %37

37:                                               ; preds = %33
  %38 = load ptr, ptr %3, align 8
  %39 = load i32, ptr %4, align 4
  %40 = insertvalue { ptr, i32 } poison, ptr %38, 0
  %41 = insertvalue { ptr, i32 } %40, i32 %39, 1
  resume { ptr, i32 } %41
}