; Function Attrs: mustprogress uwtable
define hidden void @_ZN2cv10ExrDecoderC2Ev(ptr noundef nonnull align 8 dereferenceable(376) %0) unnamed_addr #3 align 2 personality ptr @__gxx_personality_v0 {
  %2 = alloca %"class.Imath_2_5::Vec2.6", align 8
  %3 = alloca %"class.Imath_2_5::Vec2.6", align 8
  %4 = alloca %"class.Imath_2_5::Vec2.6", align 8
  %5 = alloca %"class.Imath_2_5::Vec2.6", align 8
  tail call void @_ZN2cv16BaseImageDecoderC2Ev(ptr noundef nonnull align 8 dereferenceable(272) %0)
  store ptr getelementptr inbounds inrange(-16, 104) (i8, ptr @_ZTVN2cv10ExrDecoderE, i64 16), ptr %0, align 8
  %6 = getelementptr inbounds i8, ptr %0, i64 284
  store <4 x i32> <i32 2147483647, i32 2147483647, i32 -2147483648, i32 -2147483648>, ptr %6, align 4
  %7 = getelementptr inbounds i8, ptr %0, i64 336
  store <2 x float> <float 0x3FE47AE140000000, float 0x3FD51EB860000000>, ptr %2, align 8
  store <2 x float> <float 0x3FD3333340000000, float 0x3FE3333340000000>, ptr %3, align 8
  store <2 x float> <float 0x3FC3333340000000, float 0x3FAEB851E0000000>, ptr %4, align 8
  store <2 x float> <float 0x3FD40346E0000000, float 0x3FD50E5600000000>, ptr %5, align 8
  invoke void @_ZN7Imf_2_514ChromaticitiesC1ERKN9Imath_2_54Vec2IfEES5_S5_S5_(ptr noundef nonnull align 4 dereferenceable(32) %7, ptr noundef nonnull align 4 dereferenceable(8) %2, ptr noundef nonnull align 4 dereferenceable(8) %3, ptr noundef nonnull align 4 dereferenceable(8) %4, ptr noundef nonnull align 4 dereferenceable(8) %5)
          to label %8 unwind label %17

8:                                                ; preds = %1
  %9 = getelementptr inbounds i8, ptr %0, i64 56
  %10 = invoke noundef nonnull align 8 dereferenceable(32) ptr @_ZNSt7__cxx1112basic_stringIcSt11char_traitsIcESaIcEEaSEPKc(ptr noundef nonnull align 8 dereferenceable(32) %9, ptr noundef nonnull @.str)
          to label %11 unwind label %17

11:                                               ; preds = %8
  %12 = getelementptr inbounds i8, ptr %0, i64 272
  store ptr null, ptr %12, align 8
  %13 = getelementptr inbounds i8, ptr %0, i64 304
  %14 = getelementptr inbounds i8, ptr %0, i64 280
  store i32 0, ptr %14, align 8
  %15 = getelementptr inbounds i8, ptr %0, i64 368
  %16 = getelementptr inbounds i8, ptr %0, i64 300
  store i8 0, ptr %16, align 4
  call void @llvm.memset.p0.i64(ptr noundef nonnull align 8 dereferenceable(32) %13, i8 0, i64 32, i1 false)
  store i64 0, ptr %15, align 8
  ret void

17:                                               ; preds = %8, %1
  %18 = landingpad { ptr, i32 }
          cleanup
  call void @_ZN2cv16BaseImageDecoderD2Ev(ptr noundef nonnull align 8 dereferenceable(272) %0) #23
  resume { ptr, i32 } %18
}